target datalayout = "e-m:e-p270:32:32-p271:32:32-p272:64:64-i64:64-i128:128-f80:128-n8:16:32:64-S128"
target triple = "x86_64-pc-linux-gnu"

%"class.std::shared_ptr" = type { %"class.std::__shared_ptr" }
%"class.std::__shared_ptr" = type { ptr, %"class.std::__shared_count" }
%"class.std::__shared_count" = type { ptr }
%"class.open_spiel::phantom_go::PhantomGoState" = type <{ %"class.open_spiel::State.base", [4 x i8], %"class.open_spiel::phantom_go::PhantomGoBoard", %"class.std::unordered_set", float, i32, i32, i8, i8, [2 x i8] }>
%"class.open_spiel::State.base" = type <{ ptr, %"class.std::shared_ptr", i32, i32, %"class.std::vector", i32 }>
%"class.std::vector" = type { %"struct.std::_Vector_base" }
%"struct.std::_Vector_base" = type { %"struct.std::_Vector_base<open_spiel::State::PlayerAction, std::allocator<open_spiel::State::PlayerAction>>::_Vector_impl" }
%"struct.std::_Vector_base<open_spiel::State::PlayerAction, std::allocator<open_spiel::State::PlayerAction>>::_Vector_impl" = type { %"struct.std::_Vector_base<open_spiel::State::PlayerAction, std::allocator<open_spiel::State::PlayerAction>>::_Vector_impl_data" }
%"struct.std::_Vector_base<open_spiel::State::PlayerAction, std::allocator<open_spiel::State::PlayerAction>>::_Vector_impl_data" = type { ptr, ptr, ptr }
%"class.open_spiel::phantom_go::PhantomGoBoard" = type <{ %"struct.std::array", [2 x i8], %"struct.std::array.10", i8, i8, [2 x i8], i32, %"struct.std::array.11", [2 x i8], %"struct.std::array.12", i64, %"struct.std::array.13", i32, i32, i16, [6 x i8] }>
%"struct.std::array" = type { [2 x %"struct.std::array.9"] }
%"struct.std::array.9" = type { [361 x i8] }
%"struct.std::array.10" = type { [2 x i32] }
%"struct.std::array.11" = type { [441 x %"struct.open_spiel::phantom_go::PhantomGoBoard::Vertex"] }
%"struct.open_spiel::phantom_go::PhantomGoBoard::Vertex" = type { i16, i16, i8 }
%"struct.std::array.12" = type { [441 x %"struct.open_spiel::phantom_go::PhantomGoBoard::Chain"] }
%"struct.open_spiel::phantom_go::PhantomGoBoard::Chain" = type { i32, i16, i16, i16 }
%"struct.std::array.13" = type { [4 x i16] }
%"class.std::unordered_set" = type { %"class.std::_Hashtable" }
%"class.std::_Hashtable" = type { ptr, i64, %"struct.std::__detail::_Hash_node_base", i64, %"struct.std::__detail::_Prime_rehash_policy", ptr }
%"struct.std::__detail::_Hash_node_base" = type { ptr }
%"struct.std::__detail::_Prime_rehash_policy" = type { float, i64 }
%"struct.std::pair.42" = type <{ %"struct.std::__detail::_Node_iterator", i8, [7 x i8] }>
%"struct.std::__detail::_Node_iterator" = type { %"struct.std::__detail::_Node_iterator_base" }
%"struct.std::__detail::_Node_iterator_base" = type { ptr }
%"struct.std::__detail::_AllocNode" = type { ptr }
%"struct.std::__detail::_Identity" = type { i8 }

; Function Attrs: mustprogress nounwind uwtable
define linkonce_odr noundef nonnull align 8 dereferenceable(8) ptr @_ZNSt10_HashtableImmSaImENSt8__detail9_IdentityESt8equal_toImEN10open_spiel10phantom_go14PhantomGoState15PassthroughHashENS1_18_Mod_range_hashingENS1_20_Default_ranged_hashENS1_20_Prime_rehash_policyENS1_17_Hashtable_traitsILb1ELb1ELb1EEEE14_S_forward_keyEOm(ptr noundef nonnull align 8 dereferenceable(8) %0) #5 comdat align 2 {
  %2 = alloca ptr, align 8
  store ptr %0, ptr %2, align 8
  %3 = load ptr, ptr %2, align 8
  ret ptr %3
}

; Function Attrs: mustprogress nounwind uwtable
define linkonce_odr noundef nonnull align 8 dereferenceable(8) ptr @_ZNKSt8__detail9_IdentityclImEEOT_S3_(ptr noundef nonnull align 1 dereferenceable(1) %0, ptr noundef nonnull align 8 dereferenceable(8) %1) #5 comdat align 2 {
  %3 = alloca ptr, align 8
  %4 = alloca ptr, align 8
  store ptr %0, ptr %3, align 8
  store ptr %1, ptr %4, align 8
  %5 = load ptr, ptr %4, align 8
  ret ptr %5
}

; Function Attrs: mustprogress uwtable
define linkonce_odr { ptr, i8 } @_ZNSt10_HashtableImmSaImENSt8__detail9_IdentityESt8equal_toImEN10open_spiel10phantom_go14PhantomGoState15PassthroughHashENS1_18_Mod_range_hashingENS1_20_Default_ranged_hashENS1_20_Prime_rehash_policyENS1_17_Hashtable_traitsILb1ELb1ELb1EEEE9_M_insertImNS1_10_AllocNodeISaINS1_10_Hash_nodeImLb1EEEEEEEESt4pairINS1_14_Node_iteratorImLb1ELb1EEEbEOT_RKT0_St17integral_constantIbLb1EE(ptr noundef nonnull align 8 dereferenceable(56) %0, ptr noundef nonnull align 8 dereferenceable(8) %1, ptr noundef nonnull align 8 dereferenceable(8) %2) #4 comdat align 2 {
  %4 = alloca %"struct.std::pair.42", align 8
  %5 = alloca ptr, align 8
  %6 = alloca ptr, align 8
  %7 = alloca ptr, align 8
  %8 = alloca %"struct.std::__detail::_Identity", align 1
  %9 = alloca { ptr, i8 }, align 8
  store ptr %0, ptr %5, align 8
  store ptr %1, ptr %6, align 8
  store ptr %2, ptr %7, align 8
  %10 = load ptr, ptr %5, align 8
  %11 = load ptr, ptr %6, align 8
  %12 = call noundef nonnull align 8 dereferenceable(8) ptr @_ZNKSt8__detail9_IdentityclImEEOT_S3_(ptr noundef nonnull align 1 dereferenceable(1) %8, ptr noundef nonnull align 8 dereferenceable(8) %11) #3
  %13 = call noundef nonnull align 8 dereferenceable(8) ptr @_ZNSt10_HashtableImmSaImENSt8__detail9_IdentityESt8equal_toImEN10open_spiel10phantom_go14PhantomGoState15PassthroughHashENS1_18_Mod_range_hashingENS1_20_Default_ranged_hashENS1_20_Prime_rehash_policyENS1_17_Hashtable_traitsILb1ELb1ELb1EEEE14_S_forward_keyEOm(ptr noundef nonnull align 8 dereferenceable(8) %12)
  %14 = load ptr, ptr %6, align 8
  %15 = load ptr, ptr %7, align 8
  %16 = call { ptr, i8 } @_ZNSt10_HashtableImmSaImENSt8__detail9_IdentityESt8equal_toImEN10open_spiel10phantom_go14PhantomGoState15PassthroughHashENS1_18_Mod_range_hashingENS1_20_Default_ranged_hashENS1_20_Prime_rehash_policyENS1_17_Hashtable_traitsILb1ELb1ELb1EEEE16_M_insert_uniqueImmNS1_10_AllocNodeISaINS1_10_Hash_nodeImLb1EEEEEEEESt4pairINS1_14_Node_iteratorImLb1ELb1EEEbEOT_OT0_RKT1_(ptr noundef nonnull align 8 dereferenceable(56) %10, ptr noundef nonnull align 8 dereferenceable(8) %13, ptr noundef nonnull align 8 dereferenceable(8) %14, ptr noundef nonnull align 8 dereferenceable(8) %15)
  store { ptr, i8 } %16, ptr %9, align 8
  call void @llvm.memcpy.p0.p0.i64(ptr align 8 %4, ptr align 8 %9, i64 9, i1 false)
  %17 = load { ptr, i8 }, ptr %4, align 8
  ret { ptr, i8 } %17
}

; Function Attrs: mustprogress nounwind uwtable
define linkonce_odr void @_ZNSt8__detail10_AllocNodeISaINS_10_Hash_nodeImLb1EEEEEC2ERNS_16_Hashtable_allocIS3_EE(ptr noundef nonnull align 8 dereferenceable(8) %0, ptr noundef nonnull align 1 dereferenceable(1) %1) unnamed_addr #5 comdat align 2 {
  %3 = alloca ptr, align 8
  %4 = alloca ptr, align 8
  store ptr %0, ptr %3, align 8
  store ptr %1, ptr %4, align 8
  %5 = load ptr, ptr %3, align 8
  %6 = getelementptr inbounds nuw %"struct.std::__detail::_AllocNode", ptr %5, i32 0, i32 0
  %7 = load ptr, ptr %4, align 8
  store ptr %7, ptr %6, align 8
  ret void
}

; Function Attrs: mustprogress nounwind uwtable
define linkonce_odr noundef nonnull align 8 dereferenceable(56) ptr @_ZNSt8__detail12_Insert_baseImmSaImENS_9_IdentityESt8equal_toImEN10open_spiel10phantom_go14PhantomGoState15PassthroughHashENS_18_Mod_range_hashingENS_20_Default_ranged_hashENS_20_Prime_rehash_policyENS_17_Hashtable_traitsILb1ELb1ELb1EEEE20_M_conjure_hashtableEv(ptr noundef nonnull align 1 dereferenceable(1) %0) #5 comdat align 2 {
  %2 = alloca ptr, align 8
  store ptr %0, ptr %2, align 8
  %3 = load ptr, ptr %2, align 8
  ret ptr %3
}

; Function Attrs: mustprogress uwtable
define linkonce_odr { ptr, i8 } @_ZNSt8__detail7_InsertImmSaImENS_9_IdentityESt8equal_toImEN10open_spiel10phantom_go14PhantomGoState15PassthroughHashENS_18_Mod_range_hashingENS_20_Default_ranged_hashENS_20_Prime_rehash_policyENS_17_Hashtable_traitsILb1ELb1ELb1EEELb1EE6insertEOm(ptr noundef nonnull align 1 dereferenceable(1) %0, ptr noundef nonnull align 8 dereferenceable(8) %1) #4 comdat align 2 {
  %3 = alloca %"struct.std::pair.42", align 8
  %4 = alloca ptr, align 8
  %5 = alloca ptr, align 8
  %6 = alloca ptr, align 8
  %7 = alloca %"struct.std::__detail::_AllocNode", align 8
  %8 = alloca { ptr, i8 }, align 8
  store ptr %0, ptr %4, align 8
  store ptr %1, ptr %5, align 8
  %9 = load ptr, ptr %4, align 8
  %10 = call noundef nonnull align 8 dereferenceable(56) ptr @_ZNSt8__detail12_Insert_baseImmSaImENS_9_IdentityESt8equal_toImEN10open_spiel10phantom_go14PhantomGoState15PassthroughHashENS_18_Mod_range_hashingENS_20_Default_ranged_hashENS_20_Prime_rehash_policyENS_17_Hashtable_traitsILb1ELb1ELb1EEEE20_M_conjure_hashtableEv(ptr noundef nonnull align 1 dereferenceable(1) %9)
  store ptr %10, ptr %6, align 8
  %11 = load ptr, ptr %6, align 8
  call void @_ZNSt8__detail10_AllocNodeISaINS_10_Hash_nodeImLb1EEEEEC2ERNS_16_Hashtable_allocIS3_EE(ptr noundef nonnull align 8 dereferenceable(8) %7, ptr noundef nonnull align 1 dereferenceable(1) %11)
  %12 = load ptr, ptr %6, align 8
  %13 = load ptr, ptr %5, align 8
  %14 = call { ptr, i8 } @_ZNSt10_HashtableImmSaImENSt8__detail9_IdentityESt8equal_toImEN10open_spiel10phantom_go14PhantomGoState15PassthroughHashENS1_18_Mod_range_hashingENS1_20_Default_ranged_hashENS1_20_Prime_rehash_policyENS1_17_Hashtable_traitsILb1ELb1ELb1EEEE9_M_insertImNS1_10_AllocNodeISaINS1_10_Hash_nodeImLb1EEEEEEEESt4pairINS1_14_Node_iteratorImLb1ELb1EEEbEOT_RKT0_St17integral_constantIbLb1EE(ptr noundef nonnull align 8 dereferenceable(56) %12, ptr noundef nonnull align 8 dereferenceable(8) %13, ptr noundef nonnull align 8 dereferenceable(8) %7)
  store { ptr, i8 } %14, ptr %8, align 8
  call void @llvm.memcpy.p0.p0.i64(ptr align 8 %3, ptr align 8 %8, i64 9, i1 false)
  %15 = load { ptr, i8 }, ptr %3, align 8
  ret { ptr, i8 } %15
}

; Function Attrs: mustprogress nounwind uwtable
define linkonce_odr noundef i32 @_ZNK10open_spiel10phantom_go14PhantomGoBoard11pass_actionEv(ptr noundef nonnull align 8 dereferenceable(8706) %0) #5 comdat align 2 {
  %2 = alloca ptr, align 8
  store ptr %0, ptr %2, align 8
  %3 = load ptr, ptr %2, align 8
  %4 = getelementptr inbounds nuw %"class.open_spiel::phantom_go::PhantomGoBoard", ptr %3, i32 0, i32 13
  %5 = load i32, ptr %4, align 4
  ret i32 %5
}

; Function Attrs: mustprogress uwtable
define linkonce_odr { ptr, i8 } @_ZNSt13unordered_setImN10open_spiel10phantom_go14PhantomGoState15PassthroughHashESt8equal_toImESaImEE6insertEOm(ptr noundef nonnull align 8 dereferenceable(56) %0, ptr noundef nonnull align 8 dereferenceable(8) %1) #4 comdat align 2 {
  %3 = alloca %"struct.std::pair.42", align 8
  %4 = alloca ptr, align 8
  %5 = alloca ptr, align 8
  %6 = alloca { ptr, i8 }, align 8
  store ptr %0, ptr %4, align 8
  store ptr %1, ptr %5, align 8
  %7 = load ptr, ptr %4, align 8
  %8 = getelementptr inbounds nuw %"class.std::unordered_set", ptr %7, i32 0, i32 0
  %9 = load ptr, ptr %5, align 8
  %10 = call { ptr, i8 } @_ZNSt8__detail7_InsertImmSaImENS_9_IdentityESt8equal_toImEN10open_spiel10phantom_go14PhantomGoState15PassthroughHashENS_18_Mod_range_hashingENS_20_Default_ranged_hashENS_20_Prime_rehash_policyENS_17_Hashtable_traitsILb1ELb1ELb1EEELb1EE6insertEOm(ptr noundef nonnull align 1 dereferenceable(1) %8, ptr noundef nonnull align 8 dereferenceable(8) %9)
  store { ptr, i8 } %10, ptr %6, align 8
  call void @llvm.memcpy.p0.p0.i64(ptr align 8 %3, ptr align 8 %6, i64 9, i1 false)
  %11 = load { ptr, i8 }, ptr %3, align 8
  ret { ptr, i8 } %11
}

; Function Attrs: mustprogress nounwind uwtable
define linkonce_odr noundef i64 @_ZNK10open_spiel10phantom_go14PhantomGoBoard9HashValueEv(ptr noundef nonnull align 8 dereferenceable(8706) %0) #5 comdat align 2 {
  %2 = alloca ptr, align 8
  store ptr %0, ptr %2, align 8
  %3 = load ptr, ptr %2, align 8
  %4 = getelementptr inbounds nuw %"class.open_spiel::phantom_go::PhantomGoBoard", ptr %3, i32 0, i32 10
  %5 = load i64, ptr %4, align 8
  ret i64 %5
}

; Function Attrs: mustprogress uwtable
define linkonce_odr noundef i32 @_ZNK10open_spiel10phantom_go14PhantomGoBoard21ActionToVirtualActionEl(ptr noundef nonnull align 8 dereferenceable(8706) %0, i64 noundef %1) #4 comdat align 2 {
  %3 = alloca ptr, align 8
  %4 = alloca i64, align 8
  store ptr %0, ptr %3, align 8
  store i64 %1, ptr %4, align 8
  %5 = load ptr, ptr %3, align 8
  %6 = load i64, ptr %4, align 8
  %7 = getelementptr inbounds nuw %"class.open_spiel::phantom_go::PhantomGoBoard", ptr %5, i32 0, i32 12
  %8 = load i32, ptr %7, align 8
  %9 = call noundef i32 @_ZN10open_spiel10phantom_go21ActionToVirtualActionEli(i64 noundef %6, i32 noundef %8)
  ret i32 %9
}

; Function Attrs: mustprogress uwtable
define void @_ZN10open_spiel10phantom_go14PhantomGoState13DoApplyActionEl(ptr noundef nonnull align 8 dereferenceable(8846) %0, i64 noundef %1) unnamed_addr #4 align 2 {
  %3 = alloca ptr, align 8
  %4 = alloca i64, align 8
  %5 = alloca i8, align 1
  %6 = alloca %"struct.std::pair.42", align 8
  %7 = alloca i64, align 8
  %8 = alloca { ptr, i8 }, align 8
  store ptr %0, ptr %3, align 8
  store i64 %1, ptr %4, align 8
  %9 = load ptr, ptr %3, align 8
  %10 = getelementptr inbounds nuw %"class.open_spiel::phantom_go::PhantomGoState", ptr %9, i32 0, i32 2
  %11 = getelementptr inbounds nuw %"class.open_spiel::phantom_go::PhantomGoState", ptr %9, i32 0, i32 2
  %12 = load i64, ptr %4, align 8
  %13 = call noundef i32 @_ZNK10open_spiel10phantom_go14PhantomGoBoard21ActionToVirtualActionEl(ptr noundef nonnull align 8 dereferenceable(8706) %11, i64 noundef %12)
  %14 = trunc i32 %13 to i16
  %15 = getelementptr inbounds nuw %"class.open_spiel::phantom_go::PhantomGoState", ptr %9, i32 0, i32 7
  %16 = load i8, ptr %15, align 4
  %17 = call noundef zeroext i1 @_ZN10open_spiel10phantom_go14PhantomGoBoard8PlayMoveEtNS0_7GoColorE(ptr noundef nonnull align 8 dereferenceable(8706) %10, i16 noundef zeroext %14, i8 noundef zeroext %16)
  br i1 %17, label %18, label %42

18:                                               ; preds = %2
  %19 = getelementptr inbounds nuw %"class.open_spiel::phantom_go::PhantomGoState", ptr %9, i32 0, i32 7
  %20 = load i8, ptr %19, align 4
  %21 = call noundef zeroext i8 @_ZN10open_spiel10phantom_go8OppColorENS0_7GoColorE(i8 noundef zeroext %20)
  %22 = getelementptr inbounds nuw %"class.open_spiel::phantom_go::PhantomGoState", ptr %9, i32 0, i32 7
  store i8 %21, ptr %22, align 4
  %23 = getelementptr inbounds nuw %"class.open_spiel::phantom_go::PhantomGoState", ptr %9, i32 0, i32 3
  %24 = getelementptr inbounds nuw %"class.open_spiel::phantom_go::PhantomGoState", ptr %9, i32 0, i32 2
  %25 = call noundef i64 @_ZNK10open_spiel10phantom_go14PhantomGoBoard9HashValueEv(ptr noundef nonnull align 8 dereferenceable(8706) %24)
  store i64 %25, ptr %7, align 8
  %26 = call { ptr, i8 } @_ZNSt13unordered_setImN10open_spiel10phantom_go14PhantomGoState15PassthroughHashESt8equal_toImESaImEE6insertEOm(ptr noundef nonnull align 8 dereferenceable(56) %23, ptr noundef nonnull align 8 dereferenceable(8) %7)
  store { ptr, i8 } %26, ptr %8, align 8
  call void @llvm.memcpy.p0.p0.i64(ptr align 8 %6, ptr align 8 %8, i64 9, i1 false)
  %27 = getelementptr inbounds nuw %"struct.std::pair.42", ptr %6, i32 0, i32 1
  %28 = load i8, ptr %27, align 8
  %29 = trunc i8 %28 to i1
  %30 = zext i1 %29 to i8
  store i8 %30, ptr %5, align 1
  %31 = load i8, ptr %5, align 1
  %32 = trunc i8 %31 to i1
  br i1 %32, label %41, label %33

33:                                               ; preds = %18
  %34 = load i64, ptr %4, align 8
  %35 = getelementptr inbounds nuw %"class.open_spiel::phantom_go::PhantomGoState", ptr %9, i32 0, i32 2
  %36 = call noundef i32 @_ZNK10open_spiel10phantom_go14PhantomGoBoard11pass_actionEv(ptr noundef nonnull align 8 dereferenceable(8706) %35)
  %37 = sext i32 %36 to i64
  %38 = icmp ne i64 %34, %37
  br i1 %38, label %39, label %41

39:                                               ; preds = %33
  %40 = getelementptr inbounds nuw %"class.open_spiel::phantom_go::PhantomGoState", ptr %9, i32 0, i32 8
  store i8 1, ptr %40, align 1
  br label %41

41:                                               ; preds = %39, %33, %18
  br label %42

42:                                               ; preds = %41, %2
  ret void
}