; Function Attrs: mustprogress uwtable
define void @_ZN10open_spiel10phantom_go14PhantomGoState13DoApplyActionEl(ptr noundef nonnull align 8 dereferenceable(8846) %0, i64 noundef %1) unnamed_addr #3 align 2 {
  %3 = alloca %"struct.std::__detail::_AllocNode", align 8
  %4 = alloca i64, align 8
  %5 = getelementptr inbounds nuw i8, ptr %0, i64 64
  %6 = getelementptr inbounds i8, ptr %0, i64 8760
  %7 = load i32, ptr %6, align 8
  %8 = tail call noundef i32 @_ZN10open_spiel10phantom_go21ActionToVirtualActionEli(i64 noundef %1, i32 noundef %7)
  %9 = trunc i32 %8 to i16
  %10 = getelementptr inbounds nuw i8, ptr %0, i64 8844
  %11 = load i8, ptr %10, align 4
  %12 = tail call noundef zeroext i1 @_ZN10open_spiel10phantom_go14PhantomGoBoard8PlayMoveEtNS0_7GoColorE(ptr noundef nonnull align 8 dereferenceable(8706) %5, i16 noundef zeroext %9, i8 noundef zeroext %11)
  br i1 %12, label %13, label %26

13:                                               ; preds = %2
  %14 = load i8, ptr %10, align 4
  %15 = tail call noundef zeroext i8 @_ZN10open_spiel10phantom_go8OppColorENS0_7GoColorE(i8 noundef zeroext %14)
  store i8 %15, ptr %10, align 4
  %16 = getelementptr inbounds nuw i8, ptr %0, i64 8776
  %17 = getelementptr inbounds i8, ptr %0, i64 8744
  %18 = load i64, ptr %17, align 8
  store i64 %18, ptr %4, align 8
  call void @llvm.lifetime.start.p0(i64 8, ptr nonnull %3)
  store ptr %16, ptr %3, align 8
  %19 = call { ptr, i8 } @_ZNSt10_HashtableImmSaImENSt8__detail9_IdentityESt8equal_toImEN10open_spiel10phantom_go14PhantomGoState15PassthroughHashENS1_18_Mod_range_hashingENS1_20_Default_ranged_hashENS1_20_Prime_rehash_policyENS1_17_Hashtable_traitsILb1ELb1ELb1EEEE16_M_insert_uniqueImmNS1_10_AllocNodeISaINS1_10_Hash_nodeImLb1EEEEEEEESt4pairINS1_14_Node_iteratorImLb1ELb1EEEbEOT_OT0_RKT1_(ptr noundef nonnull align 8 dereferenceable(56) %16, ptr noundef nonnull align 8 dereferenceable(8) %4, ptr noundef nonnull align 8 dereferenceable(8) %4, ptr noundef nonnull align 8 dereferenceable(8) %3)
  call void @llvm.lifetime.end.p0(i64 8, ptr nonnull %3)
  %.fca.1.extract = extractvalue { ptr, i8 } %19, 1
  %20 = trunc i8 %.fca.1.extract to i1
  %21 = getelementptr inbounds i8, ptr %0, i64 8764
  %22 = load i32, ptr %21, align 4
  %23 = sext i32 %22 to i64
  %.not = icmp eq i64 %1, %23
  %or.cond = select i1 %20, i1 true, i1 %.not
  br i1 %or.cond, label %26, label %24

24:                                               ; preds = %13
  %25 = getelementptr inbounds nuw i8, ptr %0, i64 8845
  store i8 1, ptr %25, align 1
  br label %26

26:                                               ; preds = %13, %24, %2
  ret void
}